; Function Attrs: mustprogress uwtable
define hidden noundef i32 @_ZN4cvc58internal7options23stringToMinisatSimpModeERKNSt7__cxx1112basic_stringIcSt11char_traitsIcESaIcEEE(ptr noundef nonnull align 8 dereferenceable(32) %optarg) local_unnamed_addr #3 personality ptr @__gxx_personality_v0 {
entry:
  %ref.tmp = alloca %"class.std::__cxx11::basic_string", align 8
  %ref.tmp13 = alloca %"class.std::__cxx11::basic_string", align 8
  %ref.tmp14 = alloca %"class.std::__cxx11::basic_string", align 8
  %ref.tmp15 = alloca %"class.std::allocator", align 1
  %call.i = tail call noundef i32 @_ZNKSt7__cxx1112basic_stringIcSt11char_traitsIcESaIcEE7compareEPKc(ptr noundef nonnull align 8 dereferenceable(32) %optarg, ptr noundef nonnull @.str) #12
  %cmp.i = icmp eq i32 %call.i, 0
  br i1 %cmp.i, label %return, label %if.else

if.else:                                          ; preds = %entry
  %call.i8 = tail call noundef i32 @_ZNKSt7__cxx1112basic_stringIcSt11char_traitsIcESaIcEE7compareEPKc(ptr noundef nonnull align 8 dereferenceable(32) %optarg, ptr noundef nonnull @.str.1) #12
  %cmp.i9 = icmp eq i32 %call.i8, 0
  br i1 %cmp.i9, label %return, label %if.else3

if.else3:                                         ; preds = %if.else
  %call.i10 = tail call noundef i32 @_ZNKSt7__cxx1112basic_stringIcSt11char_traitsIcESaIcEE7compareEPKc(ptr noundef nonnull align 8 dereferenceable(32) %optarg, ptr noundef nonnull @.str.2) #12
  %cmp.i11 = icmp eq i32 %call.i10, 0
  br i1 %cmp.i11, label %return, label %if.else6

if.else6:                                         ; preds = %if.else3
  %call.i12 = tail call noundef i32 @_ZNKSt7__cxx1112basic_stringIcSt11char_traitsIcESaIcEE7compareEPKc(ptr noundef nonnull align 8 dereferenceable(32) %optarg, ptr noundef nonnull @.str.5) #12
  %cmp.i13 = icmp eq i32 %call.i12, 0
  br i1 %cmp.i13, label %if.then8, label %if.end12

if.then8:                                         ; preds = %if.else6
  %call9 = tail call noundef nonnull align 8 dereferenceable(8) ptr @_ZStlsISt11char_traitsIcEERSt13basic_ostreamIcT_ES5_PKc(ptr noundef nonnull align 8 dereferenceable(8) @_ZSt4cerr, ptr noundef nonnull @.str.6)
  tail call void @exit(i32 noundef 1) #11
  unreachable

if.end12:                                         ; preds = %if.else6
  %exception = tail call ptr @__cxa_allocate_exception(i64 40) #12
  call void @_ZNSaIcEC1Ev(ptr noundef nonnull align 1 dereferenceable(1) %ref.tmp15) #12
  invoke void @_ZNSt7__cxx1112basic_stringIcSt11char_traitsIcESaIcEEC2IS3_EEPKcRKS3_(ptr noundef nonnull align 8 dereferenceable(32) %ref.tmp14, ptr noundef nonnull @.str.7, ptr noundef nonnull align 1 dereferenceable(1) %ref.tmp15)
          to label %invoke.cont unwind label %ehcleanup23.thread

invoke.cont:                                      ; preds = %if.end12
  %call.i1415 = invoke noundef nonnull align 8 dereferenceable(32) ptr @_ZNSt7__cxx1112basic_stringIcSt11char_traitsIcESaIcEE6appendERKS4_(ptr noundef nonnull align 8 dereferenceable(32) %ref.tmp14, ptr noundef nonnull align 8 dereferenceable(32) %optarg)
          to label %invoke.cont17 unwind label %lpad16

invoke.cont17:                                    ; preds = %invoke.cont
  call void @_ZNSt7__cxx1112basic_stringIcSt11char_traitsIcESaIcEEC1EOS4_(ptr noundef nonnull align 8 dereferenceable(32) %ref.tmp13, ptr noundef nonnull align 8 dereferenceable(32) %call.i1415) #12
  %call.i1617 = invoke noundef nonnull align 8 dereferenceable(32) ptr @_ZNSt7__cxx1112basic_stringIcSt11char_traitsIcESaIcEE6appendEPKc(ptr noundef nonnull align 8 dereferenceable(32) %ref.tmp13, ptr noundef nonnull @.str.8)
          to label %invoke.cont19 unwind label %lpad18

invoke.cont19:                                    ; preds = %invoke.cont17
  call void @_ZNSt7__cxx1112basic_stringIcSt11char_traitsIcESaIcEEC1EOS4_(ptr noundef nonnull align 8 dereferenceable(32) %ref.tmp, ptr noundef nonnull align 8 dereferenceable(32) %call.i1617) #12
  invoke void @_ZN4cvc58internal15OptionExceptionC2ERKNSt7__cxx1112basic_stringIcSt11char_traitsIcESaIcEEE(ptr noundef nonnull align 8 dereferenceable(40) %exception, ptr noundef nonnull align 8 dereferenceable(32) %ref.tmp)
          to label %invoke.cont21 unwind label %lpad20

invoke.cont21:                                    ; preds = %invoke.cont19
  invoke void @__cxa_throw(ptr nonnull %exception, ptr nonnull @_ZTIN4cvc58internal15OptionExceptionE, ptr nonnull @_ZN4cvc58internal15OptionExceptionD2Ev) #13
          to label %unreachable unwind label %lpad20

ehcleanup23.thread:                               ; preds = %if.end12
  %0 = landingpad { ptr, i32 }
          cleanup
  call void @_ZNSaIcED1Ev(ptr noundef nonnull align 1 dereferenceable(1) %ref.tmp15) #12
  br label %cleanup.action

lpad16:                                           ; preds = %invoke.cont
  %1 = landingpad { ptr, i32 }
          cleanup
  br label %ehcleanup23

lpad18:                                           ; preds = %invoke.cont17
  %2 = landingpad { ptr, i32 }
          cleanup
  br label %ehcleanup

lpad20:                                           ; preds = %invoke.cont21, %invoke.cont19
  %cleanup.isactive.0 = phi i1 [ false, %invoke.cont21 ], [ true, %invoke.cont19 ]
  %3 = landingpad { ptr, i32 }
          cleanup
  call void @_ZNSt7__cxx1112basic_stringIcSt11char_traitsIcESaIcEED1Ev(ptr noundef nonnull align 8 dereferenceable(32) %ref.tmp) #12
  br label %ehcleanup

ehcleanup:                                        ; preds = %lpad20, %lpad18
  %.pn = phi { ptr, i32 } [ %3, %lpad20 ], [ %2, %lpad18 ]
  %cleanup.isactive.1 = phi i1 [ %cleanup.isactive.0, %lpad20 ], [ true, %lpad18 ]
  call void @_ZNSt7__cxx1112basic_stringIcSt11char_traitsIcESaIcEED1Ev(ptr noundef nonnull align 8 dereferenceable(32) %ref.tmp13) #12
  br label %ehcleanup23

ehcleanup23:                                      ; preds = %lpad16, %ehcleanup
  %.pn.pn = phi { ptr, i32 } [ %.pn, %ehcleanup ], [ %1, %lpad16 ]
  %cleanup.isactive.2 = phi i1 [ %cleanup.isactive.1, %ehcleanup ], [ true, %lpad16 ]
  call void @_ZNSt7__cxx1112basic_stringIcSt11char_traitsIcESaIcEED1Ev(ptr noundef nonnull align 8 dereferenceable(32) %ref.tmp14) #12
  call void @_ZNSaIcED1Ev(ptr noundef nonnull align 1 dereferenceable(1) %ref.tmp15) #12
  br i1 %cleanup.isactive.2, label %cleanup.action, label %eh.resume

cleanup.action:                                   ; preds = %ehcleanup23.thread, %ehcleanup23
  %.pn.pn.pn21 = phi { ptr, i32 } [ %0, %ehcleanup23.thread ], [ %.pn.pn, %ehcleanup23 ]
  call void @__cxa_free_exception(ptr %exception) #12
  br label %eh.resume

return:                                           ; preds = %if.else3, %if.else, %entry
  %retval.0 = phi i32 [ 0, %entry ], [ 1, %if.else ], [ 2, %if.else3 ]
  ret i32 %retval.0

eh.resume:                                        ; preds = %ehcleanup23, %cleanup.action
  %.pn.pn.pn20 = phi { ptr, i32 } [ %.pn.pn, %ehcleanup23 ], [ %.pn.pn.pn21, %cleanup.action ]
  resume { ptr, i32 } %.pn.pn.pn20

unreachable:                                      ; preds = %invoke.cont21
  unreachable
}